; Function Attrs: mustprogress nofree norecurse nosync nounwind willreturn memory(read, inaccessiblemem: none) uwtable
define internal { ptr, i64 } @_ZN4llvmL30GR8_NOREXGetRawAllocationOrderERKNS_15MachineFunctionE(ptr noundef nonnull readonly align 8 captures(none) dereferenceable(1041) %0) #0 {
  %2 = alloca [2 x %"class.llvm::ArrayRef"], align 16
  %3 = load ptr, ptr getelementptr (i8, ptr @_ZN4llvm20X86MCRegisterClassesE, i64 96), align 8
  %4 = load i16, ptr getelementptr (i8, ptr @_ZN4llvm20X86MCRegisterClassesE, i64 116), align 4
  %5 = zext i16 %4 to i64
  store ptr %3, ptr %2, align 16
  %6 = getelementptr inbounds nuw i8, ptr %2, i64 8
  store i64 %5, ptr %6, align 8
  %7 = getelementptr inbounds nuw i8, ptr %2, i64 16
  store ptr @_ZZN4llvmL30GR8_NOREXGetRawAllocationOrderERKNS_15MachineFunctionEE9AltOrder1, ptr %7, align 16
  %8 = getelementptr inbounds nuw i8, ptr %2, i64 24
  store i64 4, ptr %8, align 8
  %9 = getelementptr inbounds nuw i8, ptr %0, i64 16
  %.val = load ptr, ptr %9, align 8
  %10 = getelementptr i8, ptr %.val, i64 455
  %.val.val = load i8, ptr %10, align 1
  %11 = and i8 %.val.val, 1
  %12 = zext nneg i8 %11 to i64
  %13 = getelementptr inbounds nuw [2 x %"class.llvm::ArrayRef"], ptr %2, i64 0, i64 %12
  %.sroa.0.0.copyload = load ptr, ptr %13, align 16
  %.sroa.2.0..sroa_idx = getelementptr inbounds nuw i8, ptr %13, i64 8
  %.sroa.2.0.copyload = load i64, ptr %.sroa.2.0..sroa_idx, align 8
  %.fca.0.insert = insertvalue { ptr, i64 } poison, ptr %.sroa.0.0.copyload, 0
  %.fca.1.insert = insertvalue { ptr, i64 } %.fca.0.insert, i64 %.sroa.2.0.copyload, 1
  ret { ptr, i64 } %.fca.1.insert
}